target datalayout = "e-m:e-p270:32:32-p271:32:32-p272:64:64-i64:64-i128:128-f80:128-n8:16:32:64-S128"
target triple = "x86_64-pc-linux-gnu"

%struct.AVFormatContext = type { ptr, ptr, ptr, ptr, ptr, i32, i32, ptr, i32, ptr, i32, ptr, ptr, i64, i64, i64, i32, i32, i32, i64, i64, ptr, i32, i32, ptr, i32, i32, i32, i32, ptr, i64, i32, i32, %struct.AVIOInterruptCB, i32, i32, i32, i32, i64, i32, i32, i32, i32, i32, i32, i32, i32, i32, i32, i32, i32, i64, i32, i32, i32, i32, i32, ptr, ptr, ptr, ptr, i32, ptr, ptr, ptr, ptr, i32, ptr, ptr, i64, ptr, ptr, ptr, i64 }
%struct.AVIOInterruptCB = type { ptr, ptr }

; Function Attrs: nounwind uwtable
define internal i32 @ipmovie_read_packet(ptr noundef %0, ptr noundef %1) #0 {
  %3 = alloca ptr, align 8
  %4 = alloca ptr, align 8
  %5 = alloca ptr, align 8
  %6 = alloca ptr, align 8
  %7 = alloca i32, align 4
  store ptr %0, ptr %3, align 8, !tbaa !18
  store ptr %1, ptr %4, align 8, !tbaa !74
  call void @llvm.lifetime.start.p0(i64 8, ptr %5) #6
  %8 = load ptr, ptr %3, align 8, !tbaa !18
  %9 = getelementptr inbounds nuw %struct.AVFormatContext, ptr %8, i32 0, i32 3
  %10 = load ptr, ptr %9, align 8, !tbaa !20
  store ptr %10, ptr %5, align 8, !tbaa !35
  call void @llvm.lifetime.start.p0(i64 8, ptr %6) #6
  %11 = load ptr, ptr %3, align 8, !tbaa !18
  %12 = getelementptr inbounds nuw %struct.AVFormatContext, ptr %11, i32 0, i32 4
  %13 = load ptr, ptr %12, align 8, !tbaa !37
  store ptr %13, ptr %6, align 8, !tbaa !38
  call void @llvm.lifetime.start.p0(i64 4, ptr %7) #6
  br label %14

14:                                               ; preds = %59, %58, %2
  %15 = load ptr, ptr %5, align 8, !tbaa !35
  %16 = load ptr, ptr %6, align 8, !tbaa !38
  %17 = load ptr, ptr %4, align 8, !tbaa !74
  %18 = call i32 @process_ipmovie_chunk(ptr noundef %15, ptr noundef %16, ptr noundef %17)
  store i32 %18, ptr %7, align 4, !tbaa !41
  %19 = load i32, ptr %7, align 4, !tbaa !41
  %20 = icmp eq i32 %19, 3
  br i1 %20, label %24, label %21

21:                                               ; preds = %14
  %22 = load i32, ptr %7, align 4, !tbaa !41
  %23 = icmp eq i32 %22, 1
  br i1 %23, label %24, label %29

24:                                               ; preds = %21, %14
  %25 = load ptr, ptr %5, align 8, !tbaa !35
  %26 = load ptr, ptr %6, align 8, !tbaa !38
  %27 = load ptr, ptr %4, align 8, !tbaa !74
  %28 = call i32 @load_ipmovie_packet(ptr noundef %25, ptr noundef %26, ptr noundef %27)
  store i32 %28, ptr %7, align 4, !tbaa !41
  br label %29

29:                                               ; preds = %24, %21
  %30 = load i32, ptr %7, align 4, !tbaa !41
  %31 = icmp eq i32 %30, 65535
  br i1 %31, label %32, label %33

32:                                               ; preds = %29
  store i32 -1094995529, ptr %7, align 4, !tbaa !41
  br label %64

33:                                               ; preds = %29
  %34 = load i32, ptr %7, align 4, !tbaa !41
  %35 = icmp eq i32 %34, 65534
  br i1 %35, label %36, label %37

36:                                               ; preds = %33
  store i32 -5, ptr %7, align 4, !tbaa !41
  br label %63

37:                                               ; preds = %33
  %38 = load i32, ptr %7, align 4, !tbaa !41
  %39 = icmp eq i32 %38, 65533
  br i1 %39, label %40, label %41

40:                                               ; preds = %37
  store i32 -12, ptr %7, align 4, !tbaa !41
  br label %62

41:                                               ; preds = %37
  %42 = load i32, ptr %7, align 4, !tbaa !41
  %43 = icmp eq i32 %42, 5
  br i1 %43, label %47, label %44

44:                                               ; preds = %41
  %45 = load i32, ptr %7, align 4, !tbaa !41
  %46 = icmp eq i32 %45, 4
  br i1 %46, label %47, label %48

47:                                               ; preds = %44, %41
  store i32 -541478725, ptr %7, align 4, !tbaa !41
  br label %61

48:                                               ; preds = %44
  %49 = load i32, ptr %7, align 4, !tbaa !41
  %50 = icmp eq i32 %49, 65531
  br i1 %50, label %51, label %52

51:                                               ; preds = %48
  store i32 0, ptr %7, align 4, !tbaa !41
  br label %60

52:                                               ; preds = %48
  %53 = load i32, ptr %7, align 4, !tbaa !41
  %54 = icmp eq i32 %53, 2
  br i1 %54, label %58, label %55

55:                                               ; preds = %52
  %56 = load i32, ptr %7, align 4, !tbaa !41
  %57 = icmp eq i32 %56, 0
  br i1 %57, label %58, label %59

58:                                               ; preds = %55, %52
  br label %14

59:                                               ; preds = %55
  br label %14

60:                                               ; preds = %51
  br label %61

61:                                               ; preds = %60, %47
  br label %62

62:                                               ; preds = %61, %40
  br label %63

63:                                               ; preds = %62, %36
  br label %64

64:                                               ; preds = %63, %32
  %65 = load i32, ptr %7, align 4, !tbaa !41
  call void @llvm.lifetime.end.p0(i64 4, ptr %7) #6
  call void @llvm.lifetime.end.p0(i64 8, ptr %6) #6
  call void @llvm.lifetime.end.p0(i64 8, ptr %5) #6
  ret i32 %65
}