; Function Attrs: nounwind uwtable
define internal range(i32 -1094995529, 1) i32 @ipmovie_read_packet(ptr noundef readonly captures(none) %0, ptr noundef %1) #1 {
  %3 = getelementptr inbounds nuw i8, ptr %0, i64 24
  %4 = load ptr, ptr %3, align 8, !tbaa !15
  %5 = getelementptr inbounds nuw i8, ptr %0, i64 32
  %6 = load ptr, ptr %5, align 8, !tbaa !30
  br label %7

7:                                                ; preds = %16, %2
  %8 = tail call fastcc i32 @process_ipmovie_chunk(ptr noundef %4, ptr noundef %6, ptr noundef %1)
  %9 = and i32 %8, 65533
  %or.cond = icmp eq i32 %9, 1
  br i1 %or.cond, label %10, label %12

10:                                               ; preds = %7
  %11 = tail call fastcc i32 @load_ipmovie_packet(ptr noundef %4, ptr noundef %6, ptr noundef %1)
  br label %12

12:                                               ; preds = %7, %10
  %.0 = phi i32 [ %11, %10 ], [ %8, %7 ]
  %13 = icmp samesign ugt i32 %.0, 65532
  br i1 %13, label %switch.lookup, label %14

14:                                               ; preds = %12
  %15 = and i32 %.0, 65534
  %or.cond3 = icmp eq i32 %15, 4
  br i1 %or.cond3, label %.loopexit, label %16

16:                                               ; preds = %14
  %17 = icmp eq i32 %.0, 65531
  br i1 %17, label %.loopexit, label %7

switch.lookup:                                    ; preds = %12
  %narrow = add nuw nsw i32 %.0, 3
  %switch.tableidx = zext nneg i32 %narrow to i64
  %sext = shl i64 %switch.tableidx, 48
  %18 = ashr exact i64 %sext, 48
  %switch.gep = getelementptr inbounds [3 x i32], ptr @switch.table.ipmovie_read_packet, i64 0, i64 %18
  %switch.load = load i32, ptr %switch.gep, align 4
  br label %.loopexit

.loopexit:                                        ; preds = %16, %14, %switch.lookup
  %.1 = phi i32 [ %switch.load, %switch.lookup ], [ 0, %16 ], [ -541478725, %14 ]
  ret i32 %.1
}